; Function Attrs: mustprogress nofree norecurse nosync nounwind memory(argmem: readwrite) uwtable
define noundef range(i32 -1, -2147483648) i32 @_ZNK6icu_7714DayPeriodRules24getStartHourForDayPeriodENS0_9DayPeriodER10UErrorCode(ptr noundef nonnull readonly align 4 captures(none) dereferenceable(100) %0, i32 noundef %1, ptr noundef nonnull align 4 captures(none) dereferenceable(4) %2) local_unnamed_addr #14 align 2 {
  %4 = load i32, ptr %2, align 4, !tbaa !13
  %5 = icmp slt i32 %4, 1
  br i1 %5, label %6, label %.loopexit

6:                                                ; preds = %3
  switch i32 %1, label %8 [
    i32 0, label %.loopexit
    i32 1, label %7
  ]

7:                                                ; preds = %6
  br label %.loopexit

8:                                                ; preds = %6
  %9 = getelementptr inbounds nuw i8, ptr %0, i64 4
  %10 = load i32, ptr %9, align 4, !tbaa !34
  %11 = icmp eq i32 %10, %1
  %12 = getelementptr inbounds nuw i8, ptr %0, i64 96
  %13 = load i32, ptr %12, align 4
  %14 = icmp eq i32 %13, %1
  %or.cond = select i1 %11, i1 %14, i1 false
  br i1 %or.cond, label %.preheader, label %.preheader37

.preheader:                                       ; preds = %8, %18
  %.02042 = phi i32 [ %19, %18 ], [ 22, %8 ]
  %15 = zext nneg i32 %.02042 to i64
  %16 = getelementptr inbounds nuw [24 x i32], ptr %9, i64 0, i64 %15
  %17 = load i32, ptr %16, align 4, !tbaa !34
  %.not24 = icmp eq i32 %17, %1
  br i1 %.not24, label %18, label %21

18:                                               ; preds = %.preheader
  %19 = add nsw i32 %.02042, -1
  %20 = icmp ugt i32 %.02042, 1
  br i1 %20, label %.preheader, label %.thread, !llvm.loop !39

21:                                               ; preds = %.preheader
  %22 = add nuw nsw i32 %.02042, 1
  br label %.loopexit

.preheader37:                                     ; preds = %8, %26
  %indvars.iv = phi i64 [ %indvars.iv.next, %26 ], [ 0, %8 ]
  %23 = getelementptr inbounds nuw [24 x i32], ptr %9, i64 0, i64 %indvars.iv
  %24 = load i32, ptr %23, align 4, !tbaa !34
  %25 = icmp eq i32 %24, %1
  br i1 %25, label %.loopexit.loopexit, label %26

26:                                               ; preds = %.preheader37
  %indvars.iv.next = add nuw nsw i64 %indvars.iv, 1
  %exitcond.not = icmp eq i64 %indvars.iv.next, 24
  br i1 %exitcond.not, label %.thread, label %.preheader37, !llvm.loop !41

.thread:                                          ; preds = %26, %18
  store i32 1, ptr %2, align 4, !tbaa !13
  br label %.loopexit

.loopexit.loopexit:                               ; preds = %.preheader37
  %27 = trunc nuw nsw i64 %indvars.iv to i32
  br label %.loopexit

.loopexit:                                        ; preds = %.loopexit.loopexit, %21, %6, %3, %.thread, %7
  %.021 = phi i32 [ 12, %7 ], [ %22, %21 ], [ -1, %.thread ], [ -1, %3 ], [ %1, %6 ], [ %27, %.loopexit.loopexit ]
  ret i32 %.021
}